Certificate:
    Data:
        Version: 3 (0x2)
        Serial Number: 0 (0x0)
    Signature Algorithm: sha256WithRSAEncryption
        Issuer: C=CH, ST=henan, L=zhengzhou, O=tarena, OU=AID, CN=1807/emailAddress=1741126544@qq.com
        Validity
            Not Before: Oct 15 07:59:32 2018 GMT
            Not After : Oct 15 07:59:32 2019 GMT
        Subject: C=CH, ST=henan, O=tarena, OU=AID, CN=1807/emailAddress=1741126544@qq.com
        Subject Public Key Info:
            Public Key Algorithm: rsaEncryption
                Public-Key: (1024 bit)
                Modulus:
                    00:ae:d1:dc:17:e6:20:38:be:f2:7c:e1:c6:37:72:
                    8f:51:75:5a:37:e6:de:8c:e8:0f:c2:9e:e4:2f:b0:
                    1e:83:f5:0b:74:4c:8b:d7:6c:db:d0:d6:d2:44:5c:
                    51:b9:1d:6f:dc:c6:7c:41:45:b7:5e:e8:83:3a:37:
                    eb:16:40:ec:7d:30:91:af:10:33:8f:02:c3:ae:1a:
                    70:ad:54:ce:65:77:05:f9:3d:4a:7c:fc:08:8f:33:
                    27:71:ae:5f:ee:9e:57:b9:62:8c:b2:df:f9:57:9d:
                    3c:6a:f5:eb:e8:15:00:4c:b1:7e:13:40:13:8a:e7:
                    c6:19:6d:b8:a3:32:83:5e:99
                Exponent: 65537 (0x10001)
        X509v3 extensions:
            X509v3 Basic Constraints: 
                CA:FALSE
            Netscape Comment: 
                OpenSSL Generated Certificate
            X509v3 Subject Key Identifier: 
                A1:B5:E3:FE:41:30:60:B0:70:8B:11:74:62:12:38:2F:EC:38:EE:3C
            X509v3 Authority Key Identifier: 
                keyid:EC:31:1D:10:6D:1E:5F:08:73:01:19:D1:FF:4C:AD:5C:E0:C2:07:A7

    Signature Algorithm: sha256WithRSAEncryption
         1c:95:0b:7b:0c:b7:bf:b3:71:75:e0:4c:e7:46:9f:0d:3c:08:
         ae:b4:5b:33:91:59:c0:bf:72:6e:cf:42:b6:ce:8b:70:e7:d4:
         98:32:e8:89:78:63:48:de:8d:bc:75:37:c2:a1:c8:10:4e:df:
         2f:79:c4:a3:18:74:44:b5:0e:62:0d:a5:3f:d3:ee:72:5c:48:
         c7:3e:30:06:28:9b:38:4c:d6:f9:ef:af:27:5e:af:d7:36:6c:
         c7:03:1f:70:7d:57:3a:83:e0:6f:75:d7:39:a6:a0:b2:8f:e2:
         38:1b:60:60:be:25:da:cb:7a:dd:c6:aa:f1:7e:ba:8e:3a:dd:
         ca:c7:69:7c:1a:40:72:e1:92:c3:cc:fd:28:c0:8c:42:bd:41:
         25:ae:45:6f:b4:b6:2a:2e:0a:22:d2:2f:0c:25:49:2b:43:b5:
         c7:47:91:9e:0a:fa:cf:ff:dd:af:60:fb:3f:cb:f7:a4:42:63:
         5c:0b:7c:9c:c7:e8:e8:cb:5a:1c:3a:ab:ae:f9:fa:a2:da:ef:
         4b:ac:9b:e6:48:e9:b9:92:f1:af:97:a8:06:0b:e7:b9:ab:78:
         a1:9d:e2:92:b4:50:df:19:be:1e:7d:16:cb:b6:d8:16:e8:1a:
         31:4b:51:54:38:26:89:48:ff:54:83:54:f9:46:1d:09:fe:67:
         92:e9:e1:a4
-----BEGIN CERTIFICATE-----
MIIDYTCCAkmgAwIBAgIBADANBgkqhkiG9w0BAQsFADCBgTELMAkGA1UEBhMCQ0gx
DjAMBgNVBAgMBWhlbmFuMRIwEAYDVQQHDAl6aGVuZ3pob3UxDzANBgNVBAoMBnRh
cmVuYTEMMAoGA1UECwwDQUlEMQ0wCwYDVQQDDAQxODA3MSAwHgYJKoZIhvcNAQkB
FhExNzQxMTI2NTQ0QHFxLmNvbTAeFw0xODEwMTUwNzU5MzJaFw0xOTEwMTUwNzU5
MzJaMG0xCzAJBgNVBAYTAkNIMQ4wDAYDVQQIDAVoZW5hbjEPMA0GA1UECgwGdGFy
ZW5hMQwwCgYDVQQLDANBSUQxDTALBgNVBAMMBDE4MDcxIDAeBgkqhkiG9w0BCQEW
ETE3NDExMjY1NDRAcXEuY29tMIGfMA0GCSqGSIb3DQEBAQUAA4GNADCBiQKBgQCu
0dwX5iA4vvJ84cY3co9RdVo35t6M6A/CnuQvsB6D9Qt0TIvXbNvQ1tJEXFG5HW/c
xnxBRbde6IM6N+sWQOx9MJGvEDOPAsOuGnCtVM5ldwX5PUp8/AiPMydxrl/unle5
Yoyy3/lXnTxq9evoFQBMsX4TQBOK58YZbbijMoNemQIDAQABo3sweTAJBgNVHRME
AjAAMCwGCWCGSAGG+EIBDQQfFh1PcGVuU1NMIEdlbmVyYXRlZCBDZXJ0aWZpY2F0
ZTAdBgNVHQ4EFgQUobXj/kEwYLBwixF0YhI4L+w47jwwHwYDVR0jBBgwFoAU7DEd
EG0eXwhzARnR/0ytXODCB6cwDQYJKoZIhvcNAQELBQADggEBAByVC3sMt7+zcXXg
TOdGnw08CK60WzORWcC/cm7PQrbOi3Dn1Jgy6Il4Y0jejbx1N8KhyBBO3y95xKMY
dES1DmINpT/T7nJcSMc+MAYomzhM1vnvryder9c2bMcDH3B9VzqD4G911zmmoLKP
4jgbYGC+JdrLet3GqvF+uo463crHaXwaQHLhksPM/SjAjEK9QSWuRW+0tiouCiLS
LwwlSStDtcdHkZ4K+s//3a9g+z/L96RCY1wLfJzH6OjLWhw6q675+qLa70usm+ZI
6bmS8a+XqAYL57mreKGd4pK0UN8Zvh59Fsu22BboGjFLUVQ4JolI/1SDVPlGHQn+
Z5Lp4aQ=
-----END CERTIFICATE-----
